Certificate:
    Data:
        Version: 3 (0x2)
        Serial Number: 1 (0x1)
        Signature Algorithm: sha256WithRSAEncryption
        Issuer: C=AR, ST=Buenos Aires, L=Ciudad Autonoma, O=aaNET./emailAddress=ipnero@gmail.com, CN=Local CA Unifi
        Validity
            Not Before: Apr 30 03:07:53 2024 GMT
            Not After : Jun 29 03:07:53 2024 GMT
        Subject: C=AR, ST=Buenos Aires, O=aaNET., CN=user@example.org/emailAddress=ipnero@gmail.com
        Subject Public Key Info:
            Public Key Algorithm: rsaEncryption
                Public-Key: (2048 bit)
                Modulus:
                    00:c5:a2:17:f0:d4:64:e6:95:b9:fb:b2:1c:ab:43:
                    55:61:c5:1b:24:33:e9:f1:aa:8c:52:9b:8c:7d:e7:
                    2d:5f:0e:79:e1:0d:ab:05:06:21:36:4b:8b:72:2e:
                    45:72:9a:cf:30:59:fa:67:2f:46:8b:22:16:04:74:
                    38:89:4e:b7:6d:79:26:ef:3a:d0:8b:03:8f:0f:2c:
                    37:97:c8:bd:20:2c:c2:dd:2c:a8:76:3c:65:b4:2f:
                    85:51:80:3e:6f:b5:d7:2b:89:50:cf:5b:25:d6:a0:
                    f8:ea:b2:6d:ed:7f:c5:9c:8f:55:ea:b2:89:7b:f3:
                    ca:7c:49:79:3e:1f:35:1c:5c:2f:a1:7f:53:c7:0c:
                    1d:8b:c0:d6:8c:cc:c3:d3:b7:ca:3a:e0:b6:6e:cd:
                    d0:ae:e1:7a:b6:5f:25:94:69:a8:1c:f2:86:6e:02:
                    1c:a7:39:5d:16:c7:f0:ac:66:45:3b:73:7f:94:1e:
                    53:ae:7b:81:de:c9:dd:06:0e:c4:a0:24:04:4b:48:
                    6c:f6:0f:b0:b6:0f:71:59:61:c6:dd:bc:70:cf:a6:
                    a9:80:0e:fb:16:1c:29:74:76:c0:db:ed:44:c4:51:
                    c1:a1:f7:76:32:60:90:a5:21:c5:d3:07:e5:e4:98:
                    69:c1:2d:17:7d:15:4c:9e:09:bf:5d:69:50:a0:a0:
                    17:db
                Exponent: 65537 (0x10001)
        X509v3 extensions:
            X509v3 Extended Key Usage: 
                TLS Web Client Authentication
            X509v3 CRL Distribution Points: 
                Full Name:
                  URI:http://www.example.com/example_ca.crl
            X509v3 Subject Key Identifier: 
                2A:12:E6:58:36:52:C5:7A:4C:00:44:48:9F:2E:33:FB:FD:DA:F6:AB
            X509v3 Authority Key Identifier: 
                F7:36:41:BB:15:94:56:21:EA:70:B9:E8:A3:45:19:08:53:F7:7B:D4
    Signature Algorithm: sha256WithRSAEncryption
    Signature Value:
        57:84:d3:0e:9e:e8:20:a4:ae:39:30:8d:f7:62:e9:91:6a:e0:
        86:fe:7a:18:a4:17:ec:d8:b7:be:83:65:06:8e:21:5c:c2:ca:
        a6:28:88:75:07:15:e0:6a:c2:99:ab:13:43:c4:de:eb:42:d8:
        f5:4a:f3:de:4e:d9:e3:6b:a5:ff:af:8c:97:d0:18:f7:b1:45:
        58:65:66:fb:0e:ac:eb:a1:69:ce:6d:46:7f:99:97:b9:52:fb:
        ff:58:c3:48:61:21:8b:3e:75:0f:8a:5e:2a:6f:f3:21:0d:19:
        61:fb:f3:9d:7d:01:73:9e:b6:82:57:1f:7b:b6:f8:6a:53:12:
        38:05:08:f8:00:62:cd:2d:5e:f4:82:d6:5d:02:4c:e6:60:34:
        a7:58:84:79:24:fd:a8:3c:cf:6e:ec:f4:09:41:d6:37:6d:77:
        93:67:95:b2:da:e2:2e:2f:cb:33:61:30:fa:1e:d8:da:0e:89:
        03:01:cd:72:82:6d:1d:2f:ff:bb:bc:92:0f:ad:7e:8f:00:45:
        a2:8a:7c:68:b6:f0:bd:8d:6d:17:84:d7:e9:9f:49:49:8b:1d:
        c6:fa:73:09:2e:05:bf:b7:98:f4:f8:b7:00:8b:cb:51:c5:f8:
        46:82:db:31:85:bd:73:f8:0d:10:84:c8:8f:24:1c:4f:6a:e6:
        dc:35:7d:f9
-----BEGIN CERTIFICATE-----
MIIEBzCCAu+gAwIBAgIBATANBgkqhkiG9w0BAQsFADCBiTELMAkGA1UEBhMCQVIx
FTATBgNVBAgMDEJ1ZW5vcyBBaXJlczEYMBYGA1UEBwwPQ2l1ZGFkIEF1dG9ub21h
MQ8wDQYDVQQKDAZhYU5FVC4xHzAdBgkqhkiG9w0BCQEWEGlwbmVyb0BnbWFpbC5j
b20xFzAVBgNVBAMMDkxvY2FsIENBIFVuaWZpMB4XDTI0MDQzMDAzMDc1M1oXDTI0
MDYyOTAzMDc1M1owcTELMAkGA1UEBhMCQVIxFTATBgNVBAgMDEJ1ZW5vcyBBaXJl
czEPMA0GA1UECgwGYWFORVQuMRkwFwYDVQQDDBB1c2VyQGV4YW1wbGUub3JnMR8w
HQYJKoZIhvcNAQkBFhBpcG5lcm9AZ21haWwuY29tMIIBIjANBgkqhkiG9w0BAQEF
AAOCAQ8AMIIBCgKCAQEAxaIX8NRk5pW5+7Icq0NVYcUbJDPp8aqMUpuMfectXw55
4Q2rBQYhNkuLci5FcprPMFn6Zy9GiyIWBHQ4iU63bXkm7zrQiwOPDyw3l8i9ICzC
3SyodjxltC+FUYA+b7XXK4lQz1sl1qD46rJt7X/FnI9V6rKJe/PKfEl5Ph81HFwv
oX9Txwwdi8DWjMzD07fKOuC2bs3QruF6tl8llGmoHPKGbgIcpzldFsfwrGZFO3N/
lB5TrnuB3sndBg7EoCQES0hs9g+wtg9xWWHG3bxwz6apgA77FhwpdHbA2+1ExFHB
ofd2MmCQpSHF0wfl5JhpwS0XfRVMngm/XWlQoKAX2wIDAQABo4GQMIGNMBMGA1Ud
JQQMMAoGCCsGAQUFBwMCMDYGA1UdHwQvMC0wK6ApoCeGJWh0dHA6Ly93d3cuZXhh
bXBsZS5jb20vZXhhbXBsZV9jYS5jcmwwHQYDVR0OBBYEFCoS5lg2UsV6TABESJ8u
M/v92varMB8GA1UdIwQYMBaAFPc2QbsVlFYh6nC56KNFGQhT93vUMA0GCSqGSIb3
DQEBCwUAA4IBAQBXhNMOnuggpK45MI33YumRauCG/noYpBfs2Le+g2UGjiFcwsqm
KIh1BxXgasKZqxNDxN7rQtj1SvPeTtnja6X/r4yX0Bj3sUVYZWb7DqzroWnObUZ/
mZe5Uvv/WMNIYSGLPnUPil4qb/MhDRlh+/OdfQFznraCVx97tvhqUxI4BQj4AGLN
LV70gtZdAkzmYDSnWIR5JP2oPM9u7PQJQdY3bXeTZ5Wy2uIuL8szYTD6HtjaDokD
Ac1ygm0dL/+7vJIPrX6PAEWiinxotvC9jW0XhNfpn0lJix3G+nMJLgW/t5j0+LcA
i8tRxfhGgtsxhb1z+A0QhMiPJBxPaubcNX35
-----END CERTIFICATE-----
