Certificate:
    Data:
        Version: 3 (0x2)
        Serial Number: 2 (0x2)
        Signature Algorithm: sha256WithRSAEncryption
        Issuer: C=AR, ST=Buenos Aires, L=Ciudad Autonoma, O=aaNET./emailAddress=ipnero@gmail.com, CN=Local CA Unifi
        Validity
            Not Before: Apr 30 03:08:18 2024 GMT
            Not After : Jun 29 03:08:18 2024 GMT
        Subject: C=AR, ST=Buenos Aires, O=aaNET., CN=172.24.66.242/emailAddress=ipnero@gmail.com
        Subject Public Key Info:
            Public Key Algorithm: rsaEncryption
                Public-Key: (2048 bit)
                Modulus:
                    00:94:07:8d:07:4c:75:dd:d3:3a:1e:6d:d9:43:69:
                    80:98:d3:f3:7b:2c:1a:2d:24:f0:19:ee:fc:33:43:
                    97:67:c0:1f:ec:e4:ba:c2:9c:b5:29:37:da:6d:2b:
                    cc:f5:38:0f:17:16:8b:7a:db:c6:d4:61:0e:6c:8a:
                    f5:31:47:ef:d0:9b:ec:6a:ab:7f:63:34:7b:a7:f9:
                    3c:34:9f:09:89:ab:a7:01:0b:6d:b7:9d:a4:b0:c9:
                    0a:f4:20:ee:d2:62:e6:3d:e8:d0:c6:1e:26:63:3c:
                    0a:91:ca:ac:a9:94:23:70:0a:95:e6:63:33:55:90:
                    5e:46:49:10:32:19:0b:a2:f0:80:b8:86:dc:79:74:
                    89:9b:b9:6e:d9:97:66:cb:ce:39:2f:5e:9b:2a:38:
                    00:05:24:18:4e:45:52:c9:15:a3:46:98:24:70:91:
                    83:e2:df:ee:20:2e:a3:cc:c6:cf:30:39:10:9c:e4:
                    fd:9e:bd:95:09:db:bb:b8:d0:e6:bb:13:ae:69:53:
                    ee:11:52:95:63:18:42:06:a2:e5:9e:bb:0c:61:c5:
                    7a:2a:ac:c8:91:78:a6:9c:20:63:3c:7f:6c:50:57:
                    06:2a:b1:04:34:0b:4f:6c:35:9c:18:ef:20:d3:51:
                    9f:3f:90:08:8e:95:f1:c0:5f:35:b9:e9:48:e8:9f:
                    aa:09
                Exponent: 65537 (0x10001)
        X509v3 extensions:
            X509v3 Extended Key Usage: 
                TLS Web Server Authentication
            X509v3 CRL Distribution Points: 
                Full Name:
                  URI:http://www.example.com/example_ca.crl
            X509v3 Certificate Policies: 
                Policy: 1.3.6.1.4.1.40808.1.3.2
            X509v3 Subject Key Identifier: 
                92:CB:73:71:24:7F:9C:90:A3:9E:8F:D3:2A:17:0A:C1:5D:80:46:28
            X509v3 Authority Key Identifier: 
                F7:36:41:BB:15:94:56:21:EA:70:B9:E8:A3:45:19:08:53:F7:7B:D4
    Signature Algorithm: sha256WithRSAEncryption
    Signature Value:
        bb:7e:80:18:c0:bd:81:bd:98:de:97:8c:da:3f:8e:77:f8:30:
        db:3a:7d:f8:55:be:42:36:d6:b8:9b:6d:23:fd:30:b4:33:77:
        a0:b6:d1:e7:fc:67:8f:f5:54:85:66:d1:62:7d:05:d6:ab:30:
        cb:d6:80:8c:e7:3d:3a:61:99:6d:ec:04:44:a0:33:06:17:eb:
        5f:1e:c6:28:bb:e3:e4:f8:0f:68:a1:80:54:b2:f8:f7:64:53:
        76:8a:62:ca:de:8f:dc:fc:b8:b2:c9:17:e6:39:06:cf:74:d2:
        4d:50:61:23:cd:02:68:d3:64:fc:ef:e7:1e:82:22:60:ec:95:
        ab:37:04:e4:ff:9c:a6:4b:1b:3d:35:aa:bc:a6:7b:7a:bb:e4:
        b0:36:84:00:7c:ac:16:2f:85:25:f7:9d:98:b1:fb:b4:1c:0d:
        27:e6:f2:4f:e4:d7:1f:ca:cc:ba:37:d0:cb:78:fb:21:f1:a4:
        91:84:85:4b:7b:75:46:f9:7e:06:d2:4f:f4:9c:dc:08:49:27:
        05:2e:30:0e:cd:5d:b4:b8:d8:2b:17:ed:98:19:c5:e1:46:e9:
        7e:ce:4d:65:81:be:91:6a:85:aa:9d:62:c7:e0:b9:f6:fb:d1:
        38:cd:9b:35:cd:e4:ea:77:b7:65:ed:52:af:2a:e6:68:d3:b4:
        e9:ee:25:38
-----BEGIN CERTIFICATE-----
MIIEHjCCAwagAwIBAgIBAjANBgkqhkiG9w0BAQsFADCBiTELMAkGA1UEBhMCQVIx
FTATBgNVBAgMDEJ1ZW5vcyBBaXJlczEYMBYGA1UEBwwPQ2l1ZGFkIEF1dG9ub21h
MQ8wDQYDVQQKDAZhYU5FVC4xHzAdBgkqhkiG9w0BCQEWEGlwbmVyb0BnbWFpbC5j
b20xFzAVBgNVBAMMDkxvY2FsIENBIFVuaWZpMB4XDTI0MDQzMDAzMDgxOFoXDTI0
MDYyOTAzMDgxOFowbjELMAkGA1UEBhMCQVIxFTATBgNVBAgMDEJ1ZW5vcyBBaXJl
czEPMA0GA1UECgwGYWFORVQuMRYwFAYDVQQDDA0xNzIuMjQuNjYuMjQyMR8wHQYJ
KoZIhvcNAQkBFhBpcG5lcm9AZ21haWwuY29tMIIBIjANBgkqhkiG9w0BAQEFAAOC
AQ8AMIIBCgKCAQEAlAeNB0x13dM6Hm3ZQ2mAmNPzeywaLSTwGe78M0OXZ8Af7OS6
wpy1KTfabSvM9TgPFxaLetvG1GEObIr1MUfv0Jvsaqt/YzR7p/k8NJ8JiaunAQtt
t52ksMkK9CDu0mLmPejQxh4mYzwKkcqsqZQjcAqV5mMzVZBeRkkQMhkLovCAuIbc
eXSJm7lu2Zdmy845L16bKjgABSQYTkVSyRWjRpgkcJGD4t/uIC6jzMbPMDkQnOT9
nr2VCdu7uNDmuxOuaVPuEVKVYxhCBqLlnrsMYcV6KqzIkXimnCBjPH9sUFcGKrEE
NAtPbDWcGO8g01GfP5AIjpXxwF81uelI6J+qCQIDAQABo4GqMIGnMBMGA1UdJQQM
MAoGCCsGAQUFBwMBMDYGA1UdHwQvMC0wK6ApoCeGJWh0dHA6Ly93d3cuZXhhbXBs
ZS5jb20vZXhhbXBsZV9jYS5jcmwwGAYDVR0gBBEwDzANBgsrBgEEAYK+aAEDAjAd
BgNVHQ4EFgQUkstzcSR/nJCjno/TKhcKwV2ARigwHwYDVR0jBBgwFoAU9zZBuxWU
ViHqcLnoo0UZCFP3e9QwDQYJKoZIhvcNAQELBQADggEBALt+gBjAvYG9mN6XjNo/
jnf4MNs6ffhVvkI21ribbSP9MLQzd6C20ef8Z4/1VIVm0WJ9BdarMMvWgIznPTph
mW3sBESgMwYX618exii74+T4D2ihgFSy+PdkU3aKYsrej9z8uLLJF+Y5Bs900k1Q
YSPNAmjTZPzv5x6CImDslas3BOT/nKZLGz01qryme3q75LA2hAB8rBYvhSX3nZix
+7QcDSfm8k/k1x/KzLo30Mt4+yHxpJGEhUt7dUb5fgbST/Sc3AhJJwUuMA7NXbS4
2CsX7ZgZxeFG6X7OTWWBvpFqhaqdYsfgufb70TjNmzXN5Op3t2XtUq8q5mjTtOnu
JTg=
-----END CERTIFICATE-----
